target datalayout = "e-m:e-p270:32:32-p271:32:32-p272:64:64-i64:64-i128:128-f80:128-n8:16:32:64-S128"
target triple = "x86_64-pc-linux-gnu"

%struct._address = type { i32, i32, ptr, ptr }
%struct.expert_field = type { i32, i32 }
%struct._wlan_stats = type { i8, i8, [32 x i8], [10 x i8], i8 }
%struct._DOT11DECRYPT_CONTEXT = type { ptr, [64 x %struct._DOT11DECRYPT_KEY_ITEM], i64, [32 x i8], i64 }
%struct._DOT11DECRYPT_KEY_ITEM = type { i8, %union.DOT11DECRYPT_KEY_ITEMDATA, %struct.DOT11DECRYPT_KEY_ITEMDATA_TK, %struct.DOT11DECRYPT_KEY_ITEMDATA_MSK, %struct.DOT11DECRYPT_KEY_ITEMDATA_PWD }
%union.DOT11DECRYPT_KEY_ITEMDATA = type { %struct.DOT11DECRYPT_KEY_ITEMDATA_WEP, [104 x i8] }
%struct.DOT11DECRYPT_KEY_ITEMDATA_WEP = type { [32 x i8], i64 }
%struct.DOT11DECRYPT_KEY_ITEMDATA_TK = type { [32 x i8], i8 }
%struct.DOT11DECRYPT_KEY_ITEMDATA_MSK = type { [128 x i8], i8 }
%struct.DOT11DECRYPT_KEY_ITEMDATA_PWD = type { [63 x i8], i64, [32 x i8], i64 }
%struct._packet_info = type { ptr, ptr, i32, i32, %struct.nstime_t, %struct.nstime_t, %struct.nstime_t, i8, ptr, ptr, ptr, ptr, %struct._address, %struct._address, %struct._address, %struct._address, %struct._address, %struct._address, i32, ptr, i8, [3 x i8], %struct.anon, i32, i32, i32, i32, ptr, i8, ptr, ptr, i16, i16, i32, i32, i16, i32, i32, ptr, ptr, ptr, i8, i8, i16, i16, i16, i32, i16, i16, ptr, ptr, ptr, ptr, ptr, i32, i32 }
%struct.nstime_t = type { i64, i32 }
%struct.anon = type { i8, [3 x i8] }
%struct.ieee80211_tagged_field_data = type { i32, ptr, i8, ptr, ptr }

@.str.232 = private unnamed_addr constant [5 x i8] c": %s\00", align 1
@ei_ieee80211_tag_length = internal global %struct.expert_field zeroinitializer, align 4
@hf_ieee80211_tag_ssid = internal global i32 0, align 4
@wlan_stats = internal global %struct._wlan_stats zeroinitializer, align 1
@dot11decrypt_ctx = global %struct._DOT11DECRYPT_CONTEXT zeroinitializer, align 8
@beacon_padding = internal global i32 0, align 4
@.str.9909 = private unnamed_addr constant [43 x i8] c"SSID length (%u) greater than maximum (%u)\00", align 1
@.str.9910 = private unnamed_addr constant [10 x i8] c", SSID=%s\00", align 1
@.str.9911 = private unnamed_addr constant [16 x i8] c": Wildcard SSID\00", align 1
@.str.9912 = private unnamed_addr constant [28 x i8] c", SSID=Wildcard (Broadcast)\00", align 1

; Function Attrs: alwaysinline nounwind
define internal ptr @memcpy.inline(ptr noalias %0, ptr noalias %1, i64 %2) #4 {
  %4 = alloca ptr, align 8
  %5 = alloca ptr, align 8
  %6 = alloca i64, align 8
  store ptr %0, ptr %4, align 8
  store ptr %1, ptr %5, align 8
  store i64 %2, ptr %6, align 8
  %7 = load ptr, ptr %4, align 8
  %8 = load ptr, ptr %5, align 8
  %9 = load i64, ptr %6, align 8
  %10 = load ptr, ptr %4, align 8
  %11 = call i64 @llvm.objectsize.i64.p0(ptr %10, i1 false, i1 true, i1 true)
  %12 = call ptr @__memcpy_chk(ptr noundef %7, ptr noundef %8, i64 noundef %9, i64 noundef %11) #19
  ret ptr %12
}

; Function Attrs: null_pointer_is_valid sspstrong uwtable
define internal i32 @ieee80211_tag_ssid(ptr noundef %0, ptr noundef %1, ptr noundef %2, ptr noundef %3) #1 {
  %5 = alloca i32, align 4
  %6 = alloca ptr, align 8
  %7 = alloca ptr, align 8
  %8 = alloca ptr, align 8
  %9 = alloca ptr, align 8
  %10 = alloca i32, align 4
  %11 = alloca ptr, align 8
  %12 = alloca i32, align 4
  %13 = alloca [32 x i8], align 16
  %14 = alloca i32, align 4
  %15 = alloca i32, align 4
  %16 = alloca ptr, align 8
  store ptr %0, ptr %6, align 8
  store ptr %1, ptr %7, align 8
  store ptr %2, ptr %8, align 8
  store ptr %3, ptr %9, align 8
  call void @llvm.lifetime.start.p0(i64 4, ptr %10) #19
  %17 = load ptr, ptr %6, align 8
  %18 = call i32 @tvb_reported_length(ptr noundef %17)
  store i32 %18, ptr %10, align 4
  call void @llvm.lifetime.start.p0(i64 8, ptr %11) #19
  %19 = load ptr, ptr %9, align 8
  store ptr %19, ptr %11, align 8
  call void @llvm.lifetime.start.p0(i64 4, ptr %12) #19
  store i32 0, ptr %12, align 4
  call void @llvm.lifetime.start.p0(i64 32, ptr %13) #19
  call void @llvm.lifetime.start.p0(i64 4, ptr %14) #19
  %20 = load i32, ptr @beacon_padding, align 4
  %21 = icmp ne i32 %20, 0
  br i1 %21, label %22, label %24

22:                                               ; preds = %4
  %23 = load i32, ptr %12, align 4
  store i32 %23, ptr %5, align 4
  store i32 1, ptr %15, align 4
  br label %98

24:                                               ; preds = %4
  %25 = load i32, ptr %10, align 4
  %26 = icmp sgt i32 %25, 32
  br i1 %26, label %27, label %34

27:                                               ; preds = %24
  %28 = load ptr, ptr %7, align 8
  %29 = load ptr, ptr %11, align 8
  %30 = getelementptr inbounds nuw %struct.ieee80211_tagged_field_data, ptr %29, i32 0, i32 4
  %31 = load ptr, ptr %30, align 8
  %32 = load i32, ptr %10, align 4
  %33 = call ptr (ptr, ptr, ptr, ptr, ...) @expert_add_info_format(ptr noundef %28, ptr noundef %31, ptr noundef @ei_ieee80211_tag_length, ptr noundef @.str.9909, i32 noundef %32, i32 noundef 32)
  br label %34

34:                                               ; preds = %27, %24
  %35 = load ptr, ptr %6, align 8
  %36 = load i32, ptr %12, align 4
  %37 = load i32, ptr %10, align 4
  %38 = call ptr @tvb_new_subset_length(ptr noundef %35, i32 noundef %36, i32 noundef %37)
  %39 = load i32, ptr %12, align 4
  %40 = getelementptr inbounds [32 x i8], ptr %13, i64 0, i64 0
  %41 = call i32 @tvb_get_raw_bytes_as_string(ptr noundef %38, i32 noundef %39, ptr noundef %40, i64 noundef 32)
  store i32 %41, ptr %14, align 4
  %42 = load i32, ptr %14, align 4
  %43 = load i32, ptr %10, align 4
  %44 = icmp eq i32 %42, %43
  br i1 %44, label %45, label %50

45:                                               ; preds = %34
  %46 = getelementptr inbounds [32 x i8], ptr %13, i64 0, i64 0
  %47 = load i32, ptr %14, align 4
  %48 = sext i32 %47 to i64
  %49 = call i32 @Dot11DecryptSetLastSSID(ptr noundef @dot11decrypt_ctx, ptr noundef %46, i64 noundef %48)
  br label %50

50:                                               ; preds = %45, %34
  call void @llvm.lifetime.start.p0(i64 8, ptr %16) #19
  %51 = load ptr, ptr %8, align 8
  %52 = load i32, ptr @hf_ieee80211_tag_ssid, align 4
  %53 = load ptr, ptr %6, align 8
  %54 = load i32, ptr %12, align 4
  %55 = load i32, ptr %10, align 4
  %56 = load ptr, ptr %7, align 8
  %57 = getelementptr inbounds nuw %struct._packet_info, ptr %56, i32 0, i32 51
  %58 = load ptr, ptr %57, align 8
  %59 = call ptr @proto_tree_add_item_ret_display_string(ptr noundef %51, i32 noundef %52, ptr noundef %53, i32 noundef %54, i32 noundef %55, i32 noundef 0, ptr noundef %58, ptr noundef %16)
  %60 = load i32, ptr %14, align 4
  %61 = icmp sgt i32 %60, 0
  br i1 %61, label %62, label %83

62:                                               ; preds = %50
  %63 = load ptr, ptr %11, align 8
  %64 = getelementptr inbounds nuw %struct.ieee80211_tagged_field_data, ptr %63, i32 0, i32 3
  %65 = load ptr, ptr %64, align 8
  %66 = load ptr, ptr %16, align 8
  call void (ptr, ptr, ...) @proto_item_append_text(ptr noundef %65, ptr noundef @.str.232, ptr noundef %66)
  %67 = load ptr, ptr %7, align 8
  %68 = getelementptr inbounds nuw %struct._packet_info, ptr %67, i32 0, i32 1
  %69 = load ptr, ptr %68, align 8
  %70 = load ptr, ptr %16, align 8
  call void (ptr, i32, ptr, ...) @col_append_fstr(ptr noundef %69, i32 noundef 25, ptr noundef @.str.9910, ptr noundef %70)
  %71 = getelementptr inbounds [32 x i8], ptr %13, i64 0, i64 0
  %72 = load i32, ptr %14, align 4
  %73 = icmp slt i32 %72, 32
  br i1 %73, label %74, label %76

74:                                               ; preds = %62
  %75 = load i32, ptr %14, align 4
  br label %77

76:                                               ; preds = %62
  br label %77

77:                                               ; preds = %76, %74
  %78 = phi i32 [ %75, %74 ], [ 32, %76 ]
  %79 = sext i32 %78 to i64
  %80 = call ptr @memcpy.inline(ptr noundef getelementptr inbounds nuw (%struct._wlan_stats, ptr @wlan_stats, i32 0, i32 2), ptr noundef %71, i64 noundef %79) #19
  %81 = load i32, ptr %14, align 4
  %82 = trunc i32 %81 to i8
  store i8 %82, ptr getelementptr inbounds nuw (%struct._wlan_stats, ptr @wlan_stats, i32 0, i32 1), align 1
  br label %92

83:                                               ; preds = %50
  %84 = load ptr, ptr %11, align 8
  %85 = getelementptr inbounds nuw %struct.ieee80211_tagged_field_data, ptr %84, i32 0, i32 3
  %86 = load ptr, ptr %85, align 8
  call void (ptr, ptr, ...) @proto_item_append_text(ptr noundef %86, ptr noundef @.str.9911)
  %87 = load ptr, ptr %7, align 8
  %88 = getelementptr inbounds nuw %struct._packet_info, ptr %87, i32 0, i32 1
  %89 = load ptr, ptr %88, align 8
  call void @col_append_str(ptr noundef %89, i32 noundef 25, ptr noundef @.str.9912)
  %90 = load i32, ptr %12, align 4
  %91 = add i32 %90, 1
  store i32 %91, ptr %12, align 4
  br label %92

92:                                               ; preds = %83, %77
  %93 = load i32, ptr @beacon_padding, align 4
  %94 = add i32 %93, 1
  store i32 %94, ptr @beacon_padding, align 4
  %95 = load i32, ptr %12, align 4
  %96 = load i32, ptr %10, align 4
  %97 = add i32 %95, %96
  store i32 %97, ptr %5, align 4
  store i32 1, ptr %15, align 4
  call void @llvm.lifetime.end.p0(i64 8, ptr %16) #19
  br label %98

98:                                               ; preds = %92, %22
  call void @llvm.lifetime.end.p0(i64 4, ptr %14) #19
  call void @llvm.lifetime.end.p0(i64 32, ptr %13) #19
  call void @llvm.lifetime.end.p0(i64 4, ptr %12) #19
  call void @llvm.lifetime.end.p0(i64 8, ptr %11) #19
  call void @llvm.lifetime.end.p0(i64 4, ptr %10) #19
  %99 = load i32, ptr %5, align 4
  ret i32 %99
}