; Function Attrs: null_pointer_is_valid sspstrong uwtable
define internal i32 @ieee80211_tag_ssid(ptr noundef %0, ptr noundef %1, ptr noundef %2, ptr noundef readonly captures(none) %3) #2 {
  %5 = alloca [32 x i8], align 16
  %6 = alloca ptr, align 8
  %7 = tail call i32 @tvb_reported_length(ptr noundef %0)
  call void @llvm.lifetime.start.p0(i64 32, ptr nonnull %5) #24
  %8 = load i32, ptr @beacon_padding, align 4
  %.not = icmp eq i32 %8, 0
  br i1 %.not, label %9, label %46

9:                                                ; preds = %4
  %10 = icmp sgt i32 %7, 32
  br i1 %10, label %11, label %15

11:                                               ; preds = %9
  %12 = getelementptr inbounds nuw i8, ptr %3, i64 32
  %13 = load ptr, ptr %12, align 8
  %14 = tail call ptr (ptr, ptr, ptr, ptr, ...) @expert_add_info_format(ptr noundef %1, ptr noundef %13, ptr noundef nonnull @ei_ieee80211_tag_length, ptr noundef nonnull @.str.9909, i32 noundef %7, i32 noundef 32)
  br label %15

15:                                               ; preds = %11, %9
  %16 = tail call ptr @tvb_new_subset_length(ptr noundef %0, i32 noundef 0, i32 noundef %7)
  %17 = call i32 @tvb_get_raw_bytes_as_string(ptr noundef %16, i32 noundef 0, ptr noundef nonnull %5, i64 noundef 32)
  %18 = icmp eq i32 %17, %7
  br i1 %18, label %19, label %22

19:                                               ; preds = %15
  %20 = sext i32 %7 to i64
  %21 = call i32 @Dot11DecryptSetLastSSID(ptr noundef nonnull @dot11decrypt_ctx, ptr noundef nonnull %5, i64 noundef %20)
  br label %22

22:                                               ; preds = %19, %15
  call void @llvm.lifetime.start.p0(i64 8, ptr nonnull %6) #24
  %23 = load i32, ptr @hf_ieee80211_tag_ssid, align 4
  %24 = getelementptr inbounds nuw i8, ptr %1, i64 408
  %25 = load ptr, ptr %24, align 8
  %26 = call ptr @proto_tree_add_item_ret_display_string(ptr noundef %2, i32 noundef %23, ptr noundef %0, i32 noundef 0, i32 noundef %7, i32 noundef 0, ptr noundef %25, ptr noundef nonnull %6)
  %27 = icmp sgt i32 %17, 0
  %28 = getelementptr inbounds nuw i8, ptr %3, i64 24
  %29 = load ptr, ptr %28, align 8
  br i1 %27, label %30, label %39

30:                                               ; preds = %22
  %31 = load ptr, ptr %6, align 8
  call void (ptr, ptr, ...) @proto_item_append_text(ptr noundef %29, ptr noundef nonnull @.str.232, ptr noundef %31)
  %32 = getelementptr inbounds nuw i8, ptr %1, i64 8
  %33 = load ptr, ptr %32, align 8
  %34 = load ptr, ptr %6, align 8
  call void (ptr, i32, ptr, ...) @col_append_fstr(ptr noundef %33, i32 noundef 25, ptr noundef nonnull @.str.9910, ptr noundef %34)
  %35 = call i32 @llvm.umin.i32(i32 %17, i32 32)
  %36 = zext nneg i32 %35 to i64
  %37 = call ptr @__memcpy_chk(ptr noundef nonnull getelementptr inbounds nuw (i8, ptr @wlan_stats, i64 2), ptr noundef nonnull %5, i64 noundef range(i64 0, 4294967296) %36, i64 noundef 43) #24, !alias.scope !91
  %38 = trunc i32 %17 to i8
  store i8 %38, ptr getelementptr inbounds nuw (i8, ptr @wlan_stats, i64 1), align 1
  br label %42

39:                                               ; preds = %22
  call void (ptr, ptr, ...) @proto_item_append_text(ptr noundef %29, ptr noundef nonnull @.str.9911)
  %40 = getelementptr inbounds nuw i8, ptr %1, i64 8
  %41 = load ptr, ptr %40, align 8
  call void @col_append_str(ptr noundef %41, i32 noundef 25, ptr noundef nonnull @.str.9912)
  br label %42

42:                                               ; preds = %39, %30
  %.030 = phi i32 [ 0, %30 ], [ 1, %39 ]
  %43 = load i32, ptr @beacon_padding, align 4
  %44 = add i32 %43, 1
  store i32 %44, ptr @beacon_padding, align 4
  %45 = add i32 %.030, %7
  call void @llvm.lifetime.end.p0(i64 8, ptr nonnull %6) #24
  br label %46

46:                                               ; preds = %4, %42
  %.0 = phi i32 [ %45, %42 ], [ 0, %4 ]
  call void @llvm.lifetime.end.p0(i64 32, ptr nonnull %5) #24
  ret i32 %.0
}